target datalayout = "e-m:e-p270:32:32-p271:32:32-p272:64:64-i64:64-i128:128-f80:128-n8:16:32:64-S128"
target triple = "x86_64-pc-linux-gnu"

@.str.88 = private unnamed_addr constant [30 x i8] c"Unable to retrieve target CRS\00", align 1
@.str.89 = private unnamed_addr constant [44 x i8] c"Unable to get target CRS coordinate system.\00", align 1
@.str.90 = private unnamed_addr constant [4 x i8] c"lon\00", align 1
@.str.91 = private unnamed_addr constant [4 x i8] c"Lon\00", align 1

; Function Attrs: mustprogress uwtable
define internal noundef i32 @_ZL24target_crs_lon_lat_orderP6pj_ctxP8PJconsts12PJ_DIRECTION(ptr noundef %0, ptr noundef %1, i32 noundef %2) #1 {
  %4 = alloca i32, align 4
  %5 = alloca ptr, align 8
  %6 = alloca ptr, align 8
  %7 = alloca i32, align 4
  %8 = alloca ptr, align 8
  %9 = alloca ptr, align 8
  %10 = alloca ptr, align 8
  %11 = alloca i32, align 4
  store ptr %0, ptr %5, align 8
  store ptr %1, ptr %6, align 8
  store i32 %2, ptr %7, align 4
  store ptr null, ptr %8, align 8
  %12 = load i32, ptr %7, align 4
  %13 = icmp eq i32 %12, 1
  br i1 %13, label %14, label %18

14:                                               ; preds = %3
  %15 = load ptr, ptr %5, align 8
  %16 = load ptr, ptr %6, align 8
  %17 = call ptr @proj_get_target_crs(ptr noundef %15, ptr noundef %16)
  store ptr %17, ptr %8, align 8
  br label %26

18:                                               ; preds = %3
  %19 = load i32, ptr %7, align 4
  %20 = icmp eq i32 %19, -1
  br i1 %20, label %21, label %25

21:                                               ; preds = %18
  %22 = load ptr, ptr %5, align 8
  %23 = load ptr, ptr %6, align 8
  %24 = call ptr @proj_get_source_crs(ptr noundef %22, ptr noundef %23)
  store ptr %24, ptr %8, align 8
  br label %25

25:                                               ; preds = %21, %18
  br label %26

26:                                               ; preds = %25, %14
  %27 = load ptr, ptr %8, align 8
  %28 = icmp eq ptr %27, null
  br i1 %28, label %29, label %31

29:                                               ; preds = %26
  %30 = load ptr, ptr %5, align 8
  call void (ptr, ptr, ...) @_Z22proj_context_log_debugP6pj_ctxPKcz(ptr noundef %30, ptr noundef @.str.88)
  store i32 -1, ptr %4, align 4
  br label %61

31:                                               ; preds = %26
  %32 = load ptr, ptr %5, align 8
  %33 = load ptr, ptr %8, align 8
  %34 = call ptr @proj_crs_get_coordinate_system(ptr noundef %32, ptr noundef %33)
  store ptr %34, ptr %9, align 8
  %35 = load ptr, ptr %8, align 8
  %36 = call ptr @proj_destroy(ptr noundef %35)
  %37 = load ptr, ptr %9, align 8
  %38 = icmp eq ptr %37, null
  br i1 %38, label %39, label %41

39:                                               ; preds = %31
  %40 = load ptr, ptr %5, align 8
  call void (ptr, ptr, ...) @_Z22proj_context_log_debugP6pj_ctxPKcz(ptr noundef %40, ptr noundef @.str.89)
  store i32 -1, ptr %4, align 4
  br label %61

41:                                               ; preds = %31
  store ptr null, ptr %10, align 8
  %42 = load ptr, ptr %5, align 8
  %43 = load ptr, ptr %9, align 8
  %44 = call i32 @proj_cs_get_axis_info(ptr noundef %42, ptr noundef %43, i32 noundef 0, ptr noundef null, ptr noundef %10, ptr noundef null, ptr noundef null, ptr noundef null, ptr noundef null, ptr noundef null)
  store i32 %44, ptr %11, align 4
  %45 = load ptr, ptr %9, align 8
  %46 = call ptr @proj_destroy(ptr noundef %45)
  %47 = load i32, ptr %11, align 4
  %48 = icmp ne i32 %47, 1
  br i1 %48, label %49, label %50

49:                                               ; preds = %41
  store i32 -1, ptr %4, align 4
  br label %61

50:                                               ; preds = %41
  %51 = load ptr, ptr %10, align 8
  %52 = call i32 @strcmp(ptr noundef %51, ptr noundef @.str.90) #7
  %53 = icmp eq i32 %52, 0
  br i1 %53, label %58, label %54

54:                                               ; preds = %50
  %55 = load ptr, ptr %10, align 8
  %56 = call i32 @strcmp(ptr noundef %55, ptr noundef @.str.91) #7
  %57 = icmp eq i32 %56, 0
  br label %58

58:                                               ; preds = %54, %50
  %59 = phi i1 [ true, %50 ], [ %57, %54 ]
  %60 = zext i1 %59 to i32
  store i32 %60, ptr %4, align 4
  br label %61

61:                                               ; preds = %58, %49, %39, %29
  %62 = load i32, ptr %4, align 4
  ret i32 %62
}