; Function Attrs: mustprogress uwtable
define internal fastcc noundef i32 @_ZL24target_crs_lon_lat_orderP6pj_ctxP8PJconsts12PJ_DIRECTION(ptr noundef %0, ptr noundef %1, i32 noundef %2) unnamed_addr #1 {
  %4 = alloca ptr, align 8
  switch i32 %2, label %.thread [
    i32 1, label %5
    i32 -1, label %7
  ]

5:                                                ; preds = %3
  %6 = tail call ptr @proj_get_target_crs(ptr noundef %0, ptr noundef %1)
  br label %9

7:                                                ; preds = %3
  %8 = tail call ptr @proj_get_source_crs(ptr noundef %0, ptr noundef %1)
  br label %9

9:                                                ; preds = %7, %5
  %.017 = phi ptr [ %6, %5 ], [ %8, %7 ]
  %10 = icmp eq ptr %.017, null
  br i1 %10, label %.thread, label %11

.thread:                                          ; preds = %3, %9
  tail call void (ptr, ptr, ...) @_Z22proj_context_log_debugP6pj_ctxPKcz(ptr noundef %0, ptr noundef nonnull @.str.88)
  br label %27

11:                                               ; preds = %9
  %12 = tail call ptr @proj_crs_get_coordinate_system(ptr noundef %0, ptr noundef nonnull %.017)
  %13 = tail call ptr @proj_destroy(ptr noundef nonnull %.017)
  %14 = icmp eq ptr %12, null
  br i1 %14, label %15, label %16

15:                                               ; preds = %11
  tail call void (ptr, ptr, ...) @_Z22proj_context_log_debugP6pj_ctxPKcz(ptr noundef %0, ptr noundef nonnull @.str.89)
  br label %27

16:                                               ; preds = %11
  store ptr null, ptr %4, align 8
  %17 = call i32 @proj_cs_get_axis_info(ptr noundef %0, ptr noundef nonnull %12, i32 noundef 0, ptr noundef null, ptr noundef nonnull %4, ptr noundef null, ptr noundef null, ptr noundef null, ptr noundef null, ptr noundef null)
  %18 = call ptr @proj_destroy(ptr noundef nonnull %12)
  %.not = icmp eq i32 %17, 1
  br i1 %.not, label %19, label %27

19:                                               ; preds = %16
  %20 = load ptr, ptr %4, align 8
  %21 = call i32 @strcmp(ptr noundef nonnull dereferenceable(1) %20, ptr noundef nonnull dereferenceable(4) @.str.90) #36
  %22 = icmp eq i32 %21, 0
  br i1 %22, label %27, label %23

23:                                               ; preds = %19
  %24 = call i32 @strcmp(ptr noundef nonnull dereferenceable(1) %20, ptr noundef nonnull dereferenceable(4) @.str.91) #36
  %25 = icmp eq i32 %24, 0
  %26 = zext i1 %25 to i32
  br label %27

27:                                               ; preds = %19, %23, %16, %15, %.thread
  %.0 = phi i32 [ -1, %.thread ], [ -1, %15 ], [ -1, %16 ], [ 1, %19 ], [ %26, %23 ]
  ret i32 %.0
}